; Function Attrs: nounwind uwtable
define i32 @wolfSSL_CertManagerLoadCABuffer_ex(ptr noundef %0, ptr noundef %1, i64 noundef %2, i32 noundef %3, i32 noundef %4, i32 noundef %5) local_unnamed_addr #0 {
  %7 = alloca i32, align 4
  %8 = alloca i32, align 4
  %.not = icmp eq ptr %0, null
  br i1 %.not, label %wolfSSL_CTX_free.exit, label %9

9:                                                ; preds = %6
  %10 = getelementptr inbounds nuw i8, ptr %0, i64 88
  %11 = load ptr, ptr %10, align 8, !tbaa !16
  %12 = tail call ptr @wolfTLSv1_1_client_method_ex(ptr noundef %11) #22
  %13 = load ptr, ptr %10, align 8, !tbaa !16
  %14 = tail call ptr @wolfSSL_CTX_new_ex(ptr noundef %12, ptr noundef %13)
  %15 = icmp eq ptr %14, null
  br i1 %15, label %wolfSSL_CTX_free.exit, label %wolfSSL_CTX_set_verify.exit

wolfSSL_CTX_set_verify.exit:                      ; preds = %9
  %16 = getelementptr inbounds nuw i8, ptr %14, i64 169
  %17 = load i16, ptr %16, align 1
  %18 = and i16 %17, -16
  store i16 %18, ptr %16, align 1
  %19 = getelementptr inbounds nuw i8, ptr %14, i64 208
  store ptr null, ptr %19, align 8, !tbaa !17
  %20 = getelementptr inbounds nuw i8, ptr %14, i64 144
  %21 = load ptr, ptr %20, align 8, !tbaa !26
  %.not.i = icmp eq ptr %21, null
  br i1 %.not.i, label %31, label %22

22:                                               ; preds = %wolfSSL_CTX_set_verify.exit
  call void @llvm.lifetime.start.p0(i64 4, ptr nonnull %7) #22
  store i32 0, ptr %7, align 4, !tbaa !3
  call void @llvm.lifetime.start.p0(i64 4, ptr nonnull %8) #22
  %23 = getelementptr inbounds nuw i8, ptr %21, i64 232
  call void @wolfSSL_RefWithMutexDec(ptr noundef nonnull %23, ptr noundef nonnull %7, ptr noundef nonnull %8) #22
  %24 = load i32, ptr %7, align 4, !tbaa !3
  %.not9.i = icmp eq i32 %24, 0
  br i1 %.not9.i, label %30, label %25

25:                                               ; preds = %22
  %26 = getelementptr inbounds nuw i8, ptr %21, i64 88
  %27 = load ptr, ptr %26, align 8, !tbaa !16
  call void @FreeSignerTable(ptr noundef nonnull %21, i32 noundef 11, ptr noundef %27) #22
  %28 = getelementptr inbounds nuw i8, ptr %21, i64 184
  %29 = call i32 @wc_FreeMutex(ptr noundef nonnull %28) #22
  call void @wolfSSL_RefWithMutexFree(ptr noundef nonnull %23) #22
  call void @wolfSSL_Free(ptr noundef nonnull %21) #22
  br label %30

30:                                               ; preds = %25, %22
  call void @llvm.lifetime.end.p0(i64 4, ptr nonnull %8) #22
  call void @llvm.lifetime.end.p0(i64 4, ptr nonnull %7) #22
  br label %31

31:                                               ; preds = %wolfSSL_CTX_set_verify.exit, %30
  store ptr %0, ptr %20, align 8, !tbaa !26
  %32 = call i32 @wolfSSL_CTX_load_verify_buffer_ex(ptr noundef nonnull %14, ptr noundef %1, i64 noundef %2, i32 noundef %3, i32 noundef %4, i32 noundef %5)
  store ptr null, ptr %20, align 8, !tbaa !26
  call void @FreeSSL_Ctx(ptr noundef nonnull %14) #22
  br label %wolfSSL_CTX_free.exit

wolfSSL_CTX_free.exit:                            ; preds = %6, %9, %31
  %.237 = phi i32 [ %32, %31 ], [ -1, %9 ], [ -1, %6 ]
  ret i32 %.237
}